; Function Attrs: nounwind uwtable
define ptr @l_IO_FS_Stream_writeResponseError(ptr noundef %0, ptr noundef %1, ptr noundef %2) local_unnamed_addr #0 {
  %.val = load i32, ptr %1, align 4, !tbaa !10
  %4 = icmp eq i32 %.val, 1
  br i1 %4, label %5, label %21

5:                                                ; preds = %3
  %6 = getelementptr inbounds nuw i8, ptr %1, i64 24
  %7 = load ptr, ptr %6, align 8, !tbaa !4
  %8 = ptrtoint ptr %7 to i64
  %9 = and i64 %8, 1
  %.not40 = icmp eq i64 %9, 0
  br i1 %.not40, label %10, label %lean_dec.exit29

10:                                               ; preds = %5
  %11 = load i32, ptr %7, align 4, !tbaa !10
  %12 = icmp sgt i32 %11, 1
  br i1 %12, label %13, label %15, !prof !13

13:                                               ; preds = %10
  %14 = add nsw i32 %11, -1
  store i32 %14, ptr %7, align 4, !tbaa !10
  br label %lean_dec.exit29

15:                                               ; preds = %10
  %.not.i = icmp eq i32 %11, 0
  br i1 %.not.i, label %lean_dec.exit29, label %16

16:                                               ; preds = %15
  tail call void @lean_dec_ref_cold(ptr noundef nonnull %7) #7
  br label %lean_dec.exit29

lean_dec.exit29:                                  ; preds = %16, %15, %13, %5
  %17 = getelementptr inbounds nuw i8, ptr %1, i64 4
  %18 = load i32, ptr %17, align 4
  %19 = and i32 %18, 16777215
  %20 = or disjoint i32 %19, 50331648
  store i32 %20, ptr %17, align 4
  store ptr inttoptr (i64 1 to ptr), ptr %6, align 8, !tbaa !4
  br label %60

21:                                               ; preds = %3
  %22 = getelementptr inbounds nuw i8, ptr %1, i64 8
  %23 = load ptr, ptr %22, align 8, !tbaa !4
  %24 = getelementptr i8, ptr %1, i64 32
  %.val33 = load i8, ptr %24, align 1, !tbaa !19
  %25 = getelementptr inbounds nuw i8, ptr %1, i64 16
  %26 = load ptr, ptr %25, align 8, !tbaa !4
  %27 = ptrtoint ptr %26 to i64
  %28 = and i64 %27, 1
  %.not = icmp eq i64 %28, 0
  br i1 %.not, label %29, label %lean_inc.exit30

29:                                               ; preds = %21
  %.val.i = load i32, ptr %26, align 4, !tbaa !10
  %30 = icmp sgt i32 %.val.i, 0
  br i1 %30, label %31, label %33, !prof !13

31:                                               ; preds = %29
  %32 = add nuw i32 %.val.i, 1
  store i32 %32, ptr %26, align 4, !tbaa !10
  br label %lean_inc.exit30

33:                                               ; preds = %29
  %.not.i34 = icmp eq i32 %.val.i, 0
  br i1 %.not.i34, label %lean_inc.exit30, label %34

34:                                               ; preds = %33
  tail call void @lean_inc_ref_cold(ptr noundef nonnull %26) #7
  br label %lean_inc.exit30

lean_inc.exit30:                                  ; preds = %34, %33, %31, %21
  %35 = ptrtoint ptr %23 to i64
  %36 = and i64 %35, 1
  %.not38 = icmp eq i64 %36, 0
  br i1 %.not38, label %37, label %lean_inc.exit

37:                                               ; preds = %lean_inc.exit30
  %.val.i35 = load i32, ptr %23, align 4, !tbaa !10
  %38 = icmp sgt i32 %.val.i35, 0
  br i1 %38, label %39, label %41, !prof !13

39:                                               ; preds = %37
  %40 = add nuw i32 %.val.i35, 1
  store i32 %40, ptr %23, align 4, !tbaa !10
  br label %lean_inc.exit

41:                                               ; preds = %37
  %.not.i36 = icmp eq i32 %.val.i35, 0
  br i1 %.not.i36, label %lean_inc.exit, label %42

42:                                               ; preds = %41
  tail call void @lean_inc_ref_cold(ptr noundef nonnull %23) #7
  br label %lean_inc.exit

lean_inc.exit:                                    ; preds = %42, %41, %39, %lean_inc.exit30
  %43 = ptrtoint ptr %1 to i64
  %44 = and i64 %43, 1
  %.not39 = icmp eq i64 %44, 0
  br i1 %.not39, label %45, label %lean_dec.exit

45:                                               ; preds = %lean_inc.exit
  %46 = load i32, ptr %1, align 4, !tbaa !10
  %47 = icmp sgt i32 %46, 1
  br i1 %47, label %48, label %50, !prof !13

48:                                               ; preds = %45
  %49 = add nsw i32 %46, -1
  store i32 %49, ptr %1, align 4, !tbaa !10
  br label %lean_dec.exit

50:                                               ; preds = %45
  %.not.i31 = icmp eq i32 %46, 0
  br i1 %.not.i31, label %lean_dec.exit, label %51

51:                                               ; preds = %50
  tail call void @lean_dec_ref_cold(ptr noundef nonnull %1) #7
  br label %lean_dec.exit

lean_dec.exit:                                    ; preds = %51, %50, %48, %lean_inc.exit
  tail call void @lean_inc_heartbeat() #7
  %52 = tail call noalias ptr @mi_malloc_small(i64 noundef 40) #7
  %53 = icmp eq ptr %52, null
  br i1 %53, label %54, label %lean_alloc_ctor.exit

54:                                               ; preds = %lean_dec.exit
  tail call void @lean_internal_panic_out_of_memory() #8
  unreachable

lean_alloc_ctor.exit:                             ; preds = %lean_dec.exit
  %55 = getelementptr inbounds nuw i8, ptr %52, i64 4
  %56 = getelementptr inbounds nuw i8, ptr %52, i64 32
  store i64 0, ptr %56, align 8, !tbaa !8
  store i32 1, ptr %52, align 4, !tbaa !10
  store i32 50528296, ptr %55, align 4
  %57 = getelementptr inbounds nuw i8, ptr %52, i64 8
  store ptr %23, ptr %57, align 8, !tbaa !4
  %58 = getelementptr inbounds nuw i8, ptr %52, i64 16
  store ptr %26, ptr %58, align 8, !tbaa !4
  %59 = getelementptr inbounds nuw i8, ptr %52, i64 24
  store ptr inttoptr (i64 1 to ptr), ptr %59, align 8, !tbaa !4
  store i8 %.val33, ptr %56, align 1, !tbaa !19
  br label %60

60:                                               ; preds = %lean_alloc_ctor.exit, %lean_dec.exit29
  %.sink = phi ptr [ %52, %lean_alloc_ctor.exit ], [ %1, %lean_dec.exit29 ]
  %61 = tail call ptr @l_IO_FS_Stream_writeMessage(ptr noundef %0, ptr noundef nonnull %.sink, ptr noundef %2)
  ret ptr %61
}